; Function Attrs: mustprogress uwtable
define hidden void @_ZN11th_rewriter11updt_paramsERK10params_ref(ptr noundef nonnull align 8 dereferenceable(16) %this, ptr noundef nonnull align 8 dereferenceable(8) %p) local_unnamed_addr #3 align 2 {
entry:
  %m_params = getelementptr inbounds i8, ptr %this, i64 8
  tail call void @_ZN10params_ref4copyERKS_(ptr noundef nonnull align 8 dereferenceable(8) %m_params, ptr noundef nonnull align 8 dereferenceable(8) %p)
  %0 = load ptr, ptr %this, align 8
  %1 = getelementptr i8, ptr %0, i64 144
  %.val = load ptr, ptr %1, align 8
  tail call void @_ZN13bool_rewriter11updt_paramsERK10params_ref(ptr noundef nonnull align 8 dereferenceable(72) %.val, ptr noundef nonnull align 8 dereferenceable(8) %m_params)
  %m_a_rw.i = getelementptr inbounds i8, ptr %.val, i64 72
  tail call void @_ZN14arith_rewriter11updt_paramsERK10params_ref(ptr noundef nonnull align 8 dereferenceable(96) %m_a_rw.i, ptr noundef nonnull align 8 dereferenceable(8) %m_params)
  %m_bv_rw.i = getelementptr inbounds i8, ptr %.val, i64 168
  tail call void @_ZN11bv_rewriter11updt_paramsERK10params_ref(ptr noundef nonnull align 8 dereferenceable(157) %m_bv_rw.i, ptr noundef nonnull align 8 dereferenceable(8) %m_params)
  %m_ar_rw.i = getelementptr inbounds i8, ptr %.val, i64 328
  tail call void @_ZN14array_rewriter11updt_paramsERK10params_ref(ptr noundef nonnull align 8 dereferenceable(22) %m_ar_rw.i, ptr noundef nonnull align 8 dereferenceable(8) %m_params)
  %m_f_rw.i = getelementptr inbounds i8, ptr %.val, i64 640
  tail call void @_ZN12fpa_rewriter11updt_paramsERK10params_ref(ptr noundef nonnull align 8 dereferenceable(73) %m_f_rw.i, ptr noundef nonnull align 8 dereferenceable(8) %m_params)
  %m_seq_rw.i = getelementptr inbounds i8, ptr %.val, i64 832
  tail call void @_ZN12seq_rewriter11updt_paramsERK10params_ref(ptr noundef nonnull align 8 dereferenceable(497) %m_seq_rw.i, ptr noundef nonnull align 8 dereferenceable(8) %m_params)
  tail call fastcc void @_ZN12_GLOBAL__N_115th_rewriter_cfg17updt_local_paramsERK10params_ref(ptr noundef nonnull align 8 dereferenceable(2585) %.val, ptr noundef nonnull align 8 dereferenceable(8) %m_params)
  ret void
}